target datalayout = "e-m:e-p270:32:32-p271:32:32-p272:64:64-i64:64-i128:128-f80:128-n8:16:32:64-S128"
target triple = "x86_64-pc-linux-gnu"

%struct.WOLFSSL = type <{ ptr, ptr, ptr, ptr, [48 x i8], [48 x i8], ptr, ptr, ptr, ptr, ptr, ptr, ptr, ptr, ptr, ptr, ptr, ptr, ptr, i32, [4 x i8], %struct.WOLFSSL_CIPHER, ptr, %struct.Ciphers, %struct.Ciphers, [8 x i8], %struct.Buffers, ptr, ptr, %struct.WOLFSSL_ALERT_HISTORY, %struct.WOLFSSL_ALERT, i32, i32, i32, i32, i32, i32, i32, i16, [2 x i8], i32, i8, %struct.RecordLayerHeader, %struct.MsgsReceived, %struct.ProtocolVersion, %struct.ProtocolVersion, %struct.CipherSpecs, [2 x i8], %struct.Keys, %struct.Options, ptr, i8, i8, i16, [10 x i16], i8, i8, i16, i16, [38 x i8], i32, i32, [4 x i8], ptr, i8, i8, [6 x i8], ptr, ptr, i16, i8, i8, i32, i8, [3 x i8], i32, %struct.OneTimeAuth, ptr }>
%struct.WOLFSSL_CIPHER = type { i8, i8, ptr }
%struct.Ciphers = type { ptr, ptr, ptr, ptr, i8, i8 }
%struct.Buffers = type { %struct.bufferStatic, %struct.bufferStatic, %struct.WOLFSSL_BUFFER_INFO, %struct.WOLFSSL_BUFFER_INFO, %struct.WOLFSSL_BUFFER_INFO, %struct.WOLFSSL_BUFFER_INFO, i32, i32, i8, i8, i8, i8, %struct.WOLFSSL_BUFFER_INFO, %struct.WOLFSSL_BUFFER_INFO, %struct.WOLFSSL_BUFFER_INFO, %struct.WOLFSSL_BUFFER_INFO, ptr, ptr, ptr, i8, i8, i32, i32, ptr, i32, [1 x ptr] }
%struct.bufferStatic = type { [5 x i8], ptr, i32, i32, i32, i8, i8 }
%struct.WOLFSSL_BUFFER_INFO = type { ptr, i32 }
%struct.WOLFSSL_ALERT_HISTORY = type { %struct.WOLFSSL_ALERT, %struct.WOLFSSL_ALERT }
%struct.WOLFSSL_ALERT = type { i32, i32 }
%struct.RecordLayerHeader = type { i8, i8, i8, [2 x i8] }
%struct.MsgsReceived = type { i32 }
%struct.ProtocolVersion = type { i8, i8 }
%struct.CipherSpecs = type { i16, i16, i16, i16, i8, i8, i8, i8, i8, i8, i8, i8 }
%struct.Keys = type { [64 x i8], [64 x i8], [32 x i8], [32 x i8], [16 x i8], [16 x i8], [8 x i8], [12 x i8], [12 x i8], i32, i32, i32, i32, i32, i32, i8, i8, i8, i8 }
%struct.Options = type { i64, i64, i8, i8, i8, i8, i8, i8, i8, i8, i8, i8, i8, i8, i8, i8, i8, i8, i8, i8, i8, i8, i8, i16, i16, i16, i16, i16, i8 }
%struct.OneTimeAuth = type { ptr, i8 }

; Function Attrs: inlinehint nounwind uwtable
define internal void @c16toa(i16 noundef zeroext %0, ptr noundef %1) #5 {
  %3 = alloca i16, align 2
  %4 = alloca ptr, align 8
  store i16 %0, ptr %3, align 2, !tbaa !73
  store ptr %1, ptr %4, align 8, !tbaa !8
  %5 = load i16, ptr %3, align 2, !tbaa !73
  %6 = zext i16 %5 to i32
  %7 = ashr i32 %6, 8
  %8 = and i32 %7, 255
  %9 = trunc i32 %8 to i8
  %10 = load ptr, ptr %4, align 8, !tbaa !8
  %11 = getelementptr inbounds i8, ptr %10, i64 0
  store i8 %9, ptr %11, align 1, !tbaa !55
  %12 = load i16, ptr %3, align 2, !tbaa !73
  %13 = zext i16 %12 to i32
  %14 = and i32 %13, 255
  %15 = trunc i32 %14 to i8
  %16 = load ptr, ptr %4, align 8, !tbaa !8
  %17 = getelementptr inbounds i8, ptr %16, i64 1
  store i8 %15, ptr %17, align 1, !tbaa !55
  ret void
}

; Function Attrs: nounwind uwtable
define i32 @wolfSSL_SetTlsHmacInner(ptr noundef %0, ptr noundef %1, i32 noundef %2, i32 noundef %3, i32 noundef %4) #0 {
  %6 = alloca i32, align 4
  %7 = alloca ptr, align 8
  %8 = alloca ptr, align 8
  %9 = alloca i32, align 4
  %10 = alloca i32, align 4
  %11 = alloca i32, align 4
  store ptr %0, ptr %7, align 8, !tbaa !3
  store ptr %1, ptr %8, align 8, !tbaa !8
  store i32 %2, ptr %9, align 4, !tbaa !12
  store i32 %3, ptr %10, align 4, !tbaa !12
  store i32 %4, ptr %11, align 4, !tbaa !12
  %12 = load ptr, ptr %7, align 8, !tbaa !3
  %13 = icmp eq ptr %12, null
  br i1 %13, label %17, label %14

14:                                               ; preds = %5
  %15 = load ptr, ptr %8, align 8, !tbaa !8
  %16 = icmp eq ptr %15, null
  br i1 %16, label %17, label %18

17:                                               ; preds = %14, %5
  store i32 -173, ptr %6, align 4
  br label %51

18:                                               ; preds = %14
  %19 = load i32, ptr %10, align 4, !tbaa !12
  %20 = icmp eq i32 %19, 25
  br i1 %20, label %21, label %24

21:                                               ; preds = %18
  br label %22

22:                                               ; preds = %21
  br label %23

23:                                               ; preds = %22
  store i32 -173, ptr %6, align 4
  br label %51

24:                                               ; preds = %18
  %25 = load ptr, ptr %8, align 8, !tbaa !8
  call void @llvm.memset.p0.i64(ptr align 1 %25, i8 0, i64 13, i1 false)
  %26 = load ptr, ptr %7, align 8, !tbaa !3
  %27 = load i32, ptr %11, align 4, !tbaa !12
  %28 = load ptr, ptr %8, align 8, !tbaa !8
  call void @WriteSEQ(ptr noundef %26, i32 noundef %27, ptr noundef %28)
  %29 = load i32, ptr %10, align 4, !tbaa !12
  %30 = trunc i32 %29 to i8
  %31 = load ptr, ptr %8, align 8, !tbaa !8
  %32 = getelementptr inbounds i8, ptr %31, i64 8
  store i8 %30, ptr %32, align 1, !tbaa !55
  %33 = load ptr, ptr %7, align 8, !tbaa !3
  %34 = getelementptr inbounds nuw %struct.WOLFSSL, ptr %33, i32 0, i32 44
  %35 = getelementptr inbounds nuw %struct.ProtocolVersion, ptr %34, i32 0, i32 0
  %36 = load i8, ptr %35, align 2, !tbaa !93
  %37 = load ptr, ptr %8, align 8, !tbaa !8
  %38 = getelementptr inbounds i8, ptr %37, i64 9
  store i8 %36, ptr %38, align 1, !tbaa !55
  %39 = load ptr, ptr %7, align 8, !tbaa !3
  %40 = getelementptr inbounds nuw %struct.WOLFSSL, ptr %39, i32 0, i32 44
  %41 = getelementptr inbounds nuw %struct.ProtocolVersion, ptr %40, i32 0, i32 1
  %42 = load i8, ptr %41, align 1, !tbaa !94
  %43 = load ptr, ptr %8, align 8, !tbaa !8
  %44 = getelementptr inbounds i8, ptr %43, i64 10
  store i8 %42, ptr %44, align 1, !tbaa !55
  %45 = load i32, ptr %9, align 4, !tbaa !12
  %46 = trunc i32 %45 to i16
  %47 = load ptr, ptr %8, align 8, !tbaa !8
  %48 = getelementptr inbounds i8, ptr %47, i64 8
  %49 = getelementptr inbounds i8, ptr %48, i64 1
  %50 = getelementptr inbounds i8, ptr %49, i64 2
  call void @c16toa(i16 noundef zeroext %46, ptr noundef %50)
  store i32 0, ptr %6, align 4
  br label %51

51:                                               ; preds = %24, %23, %17
  %52 = load i32, ptr %6, align 4
  ret i32 %52
}