; Function Attrs: nounwind uwtable
define range(i32 -173, 1) i32 @wolfSSL_SetTlsHmacInner(ptr noundef %0, ptr noundef %1, i32 noundef %2, i32 noundef %3, i32 noundef %4) local_unnamed_addr #0 {
  %6 = icmp eq ptr %0, null
  %7 = icmp eq ptr %1, null
  %or.cond = or i1 %6, %7
  %8 = icmp eq i32 %3, 25
  %or.cond19 = or i1 %or.cond, %8
  br i1 %or.cond19, label %23, label %9

9:                                                ; preds = %5
  tail call void @llvm.memset.p0.i64(ptr noundef nonnull align 1 dereferenceable(13) %1, i8 0, i64 13, i1 false)
  tail call void @WriteSEQ(ptr noundef nonnull %0, i32 noundef %4, ptr noundef nonnull %1) #17
  %10 = trunc i32 %3 to i8
  %11 = getelementptr inbounds nuw i8, ptr %1, i64 8
  store i8 %10, ptr %11, align 1, !tbaa !51
  %12 = getelementptr inbounds nuw i8, ptr %0, i64 710
  %13 = load i8, ptr %12, align 2, !tbaa !75
  %14 = getelementptr inbounds nuw i8, ptr %1, i64 9
  store i8 %13, ptr %14, align 1, !tbaa !51
  %15 = getelementptr inbounds nuw i8, ptr %0, i64 711
  %16 = load i8, ptr %15, align 1, !tbaa !76
  %17 = getelementptr inbounds nuw i8, ptr %1, i64 10
  store i8 %16, ptr %17, align 1, !tbaa !51
  %18 = getelementptr inbounds nuw i8, ptr %1, i64 11
  %19 = lshr i32 %2, 8
  %20 = trunc i32 %19 to i8
  store i8 %20, ptr %18, align 1, !tbaa !51
  %21 = trunc i32 %2 to i8
  %22 = getelementptr inbounds nuw i8, ptr %1, i64 12
  store i8 %21, ptr %22, align 1, !tbaa !51
  br label %23

23:                                               ; preds = %5, %9
  %.0 = phi i32 [ 0, %9 ], [ -173, %5 ]
  ret i32 %.0
}